; ModuleID = '3/1374.c'
source_filename = "3/1374.c"
target datalayout = "e-m:e-p270:32:32-p271:32:32-p272:64:64-i64:64-f80:128-n8:16:32:64-S128"
target triple = "x86_64-pc-linux-gnu"

@.str = private unnamed_addr constant [6 x i8] c"%d %d\00", align 1
@.str.1 = private unnamed_addr constant [4 x i8] c"%d \00", align 1
@.str.2 = private unnamed_addr constant [3 x i8] c"no\00", align 1
@.str.3 = private unnamed_addr constant [4 x i8] c"yes\00", align 1

; Function Attrs: noinline nounwind uwtable
define dso_local i32 @main(i32 %0, i8** %1) #0 {
  %3 = alloca i32, align 4
  %4 = alloca i32, align 4
  %5 = alloca i8**, align 8
  %6 = alloca i32, align 4
  %7 = alloca i32, align 4
  %8 = alloca i32, align 4
  %9 = alloca i32, align 4
  %10 = alloca [1000 x i32], align 16
  %11 = alloca i32, align 4
  %12 = alloca i32, align 4
  %13 = alloca i32, align 4
  store i32 0, i32* %3, align 4
  store i32 %0, i32* %4, align 4
  store i8** %1, i8*** %5, align 8
  store i32 0, i32* %9, align 4
  %14 = call i32 (i8*, ...) @__isoc99_scanf(i8* getelementptr inbounds ([6 x i8], [6 x i8]* @.str, i64 0, i64 0), i32* %6, i32* %7)
  store i32 0, i32* %11, align 4
  br label %15

15:                                               ; preds = %24, %2
  %16 = load i32, i32* %11, align 4
  %17 = load i32, i32* %6, align 4
  %18 = icmp slt i32 %16, %17
  br i1 %18, label %19, label %27

19:                                               ; preds = %15
  %20 = load i32, i32* %11, align 4
  %21 = sext i32 %20 to i64
  %22 = getelementptr inbounds [1000 x i32], [1000 x i32]* %10, i64 0, i64 %21
  %23 = call i32 (i8*, ...) @__isoc99_scanf(i8* getelementptr inbounds ([4 x i8], [4 x i8]* @.str.1, i64 0, i64 0), i32* %22)
  br label %24

24:                                               ; preds = %19
  %25 = load i32, i32* %11, align 4
  %26 = add nsw i32 %25, 1
  store i32 %26, i32* %11, align 4
  br label %15

27:                                               ; preds = %15
  store i32 0, i32* %12, align 4
  br label %28

28:                                               ; preds = %58, %27
  %29 = load i32, i32* %12, align 4
  %30 = load i32, i32* %6, align 4
  %31 = icmp slt i32 %29, %30
  br i1 %31, label %32, label %61

32:                                               ; preds = %28
  store i32 0, i32* %13, align 4
  br label %33

33:                                               ; preds = %54, %32
  %34 = load i32, i32* %13, align 4
  %35 = load i32, i32* %6, align 4
  %36 = icmp slt i32 %34, %35
  br i1 %36, label %37, label %57

37:                                               ; preds = %33
  %38 = load i32, i32* %12, align 4
  %39 = sext i32 %38 to i64
  %40 = getelementptr inbounds [1000 x i32], [1000 x i32]* %10, i64 0, i64 %39
  %41 = load i32, i32* %40, align 4
  %42 = load i32, i32* %13, align 4
  %43 = sext i32 %42 to i64
  %44 = getelementptr inbounds [1000 x i32], [1000 x i32]* %10, i64 0, i64 %43
  %45 = load i32, i32* %44, align 4
  %46 = add nsw i32 %41, %45
  store i32 %46, i32* %8, align 4
  %47 = load i32, i32* %8, align 4
  %48 = load i32, i32* %7, align 4
  %49 = icmp ne i32 %47, %48
  br i1 %49, label %50, label %53

50:                                               ; preds = %37
  %51 = load i32, i32* %9, align 4
  %52 = add nsw i32 %51, 1
  store i32 %52, i32* %9, align 4
  br label %53

53:                                               ; preds = %50, %37
  br label %54

54:                                               ; preds = %53
  %55 = load i32, i32* %13, align 4
  %56 = add nsw i32 %55, 1
  store i32 %56, i32* %13, align 4
  br label %33

57:                                               ; preds = %33
  br label %58

58:                                               ; preds = %57
  %59 = load i32, i32* %12, align 4
  %60 = add nsw i32 %59, 1
  store i32 %60, i32* %12, align 4
  br label %28

61:                                               ; preds = %28
  %62 = load i32, i32* %9, align 4
  %63 = load i32, i32* %6, align 4
  %64 = load i32, i32* %6, align 4
  %65 = mul nsw i32 %63, %64
  %66 = icmp eq i32 %62, %65
  br i1 %66, label %67, label %69

67:                                               ; preds = %61
  %68 = call i32 (i8*, ...) @printf(i8* getelementptr inbounds ([3 x i8], [3 x i8]* @.str.2, i64 0, i64 0))
  br label %71

69:                                               ; preds = %61
  %70 = call i32 (i8*, ...) @printf(i8* getelementptr inbounds ([4 x i8], [4 x i8]* @.str.3, i64 0, i64 0))
  br label %71

71:                                               ; preds = %69, %67
  ret i32 0
}

declare dso_local i32 @__isoc99_scanf(i8*, ...) #1

declare dso_local i32 @printf(i8*, ...) #1


!llvm.module.flags = !{!0}
!llvm.ident = !{!1}

!0 = !{i32 1, !"wchar_size", i32 4}
!1 = !{!"clang version 10.0.0-4ubuntu1 "}
